(dp1
S'files'
p2
(dp3
S'residents_migrations_0001_initial'
p4
(dp5
S'index'
p6
(dp7
S'html_filename'
p8
S'residents_migrations_0001_initial.html'
p9
sS'name'
p10
S'residents/migrations/0001_initial'
p11
sS'nums'
p12
ccopy_reg
_reconstructor
p13
(ccoverage.results
Numbers
p14
c__builtin__
object
p15
NtRp16
(dp17
S'n_files'
p18
I1
sS'n_branches'
p19
I0
sS'n_statements'
p20
I9
sS'n_excluded'
p21
I0
sS'n_partial_branches'
p22
I0
sS'n_missing'
p23
I0
sS'n_missing_branches'
p24
I0
sbssS'hash'
p25
S'\xe0x\xf8\xd6\x93\x92\x94EI\xea+Oh\x12\xefO'
p26
ssS'georgias_test'
p27
(dp28
g6
(dp29
g8
S'georgias_test.html'
p30
sg10
S'georgias/test'
p31
sg12
g13
(g14
g15
NtRp32
(dp33
g18
I1
sg19
I0
sg20
I527
sg21
I0
sg22
I0
sg23
I0
sg24
I0
sbssg25
S'\x86\x1bo\xe8,\x82R\x19\xabo\xd4V\xf3\xda\xb4\xf9'
p34
ssS'manage'
p35
(dp36
g6
(dp37
S'html_filename'
p38
S'manage.html'
p39
sS'name'
p40
S'manage'
p41
sS'nums'
p42
g13
(g14
g15
NtRp43
(dp44
g18
I1
sg19
I0
sg20
I2
sg21
I11
sg22
I0
sg23
I0
sg24
I0
sbssg25
S'\xb0\x99\xed\xbf,\xc4u\xf4Q\x16\xa3\xaf\x7f\xc1\xa1u'
p45
ssS'georgias_snippets'
p46
(dp47
g6
(dp48
g8
S'georgias_snippets.html'
p49
sg10
S'georgias/snippets'
p50
sg12
g13
(g14
g15
NtRp51
(dp52
g18
I1
sg19
I0
sg20
I19
sg21
I123
sg22
I0
sg23
I0
sg24
I0
sbssg25
S"\xabp\xc4\x00\x02\xc6\xa7\xb4&\xf5/nc'\xf6\x80"
p53
ssS'residents_test'
p54
(dp55
g6
(dp56
g8
S'residents_test.html'
p57
sg10
S'residents/test'
p58
sg12
g13
(g14
g15
NtRp59
(dp60
g18
I1
sg19
I0
sg20
I426
sg21
I42
sg22
I0
sg23
I0
sg24
I0
sbssg25
S')\xc0\xc1\xb5\x16\x88Q.\x1a]\xfe)\xb59\xdfl'
p61
ssS'residents_models'
p62
(dp63
g6
(dp64
g8
S'residents_models.html'
p65
sg10
S'residents/models'
p66
sg12
g13
(g14
g15
NtRp67
(dp68
g18
I1
sg19
I0
sg20
I204
sg21
I0
sg22
I0
sg23
I0
sg24
I0
sbssg25
S'oe\xcf\xa5\xf7{\xd5\xe1\xa1.N\x83\x84\x85\x12 '
p69
ssS'georgias___init__'
p70
(dp71
g6
(dp72
g8
S'georgias___init__.html'
p73
sg10
S'georgias/__init__'
p74
sg12
g13
(g14
g15
NtRp75
(dp76
g18
I1
sg19
I0
sg20
I0
sg21
I0
sg22
I0
sg23
I0
sg24
I0
sbssg25
S'\xca\xf5\x9f\x7f\x88\xdfa\x831|T\x1d\xbc}\xa5v'
p77
ssS'georgias_models'
p78
(dp79
g6
(dp80
g8
S'georgias_models.html'
p81
sg10
S'georgias/models'
p82
sg12
g13
(g14
g15
NtRp83
(dp84
g18
I1
sg19
I0
sg20
I52
sg21
I0
sg22
I0
sg23
I0
sg24
I0
sbssg25
S'!C<XC\x0f\x08\x80e~NO\x93\xe9\xb7p'
p85
ssS'residents___init__'
p86
(dp87
g6
(dp88
g8
S'residents___init__.html'
p89
sg10
S'residents/__init__'
p90
sg12
g13
(g14
g15
NtRp91
(dp92
g18
I1
sg19
I0
sg20
I0
sg21
I0
sg22
I0
sg23
I0
sg24
I0
sbssg25
S'\xca\xf5\x9f\x7f\x88\xdfa\x831|T\x1d\xbc}\xa5v'
p93
ssS'residents_views'
p94
(dp95
g6
(dp96
g8
S'residents_views.html'
p97
sg10
S'residents/views'
p98
sg12
g13
(g14
g15
NtRp99
(dp100
g18
I1
sg19
I0
sg20
I254
sg21
I131
sg22
I0
sg23
I0
sg24
I0
sbssg25
S'\xec\xfe|j\xf4T\x1b\x8e\x9d\x92\xf5\x98$gz@'
p101
ssS'georgias_views'
p102
(dp103
g6
(dp104
g8
S'georgias_views.html'
p105
sg10
S'georgias/views'
p106
sg12
g13
(g14
g15
NtRp107
(dp108
g18
I1
sg19
I0
sg20
I241
sg21
I336
sg22
I0
sg23
I0
sg24
I0
sbssg25
S'\x15\x82-f\x97\x93n=\x051h+\xb9F\x97J'
p109
ssS'residents_forms'
p110
(dp111
g6
(dp112
g8
S'residents_forms.html'
p113
sg10
S'residents/forms'
p114
sg12
g13
(g14
g15
NtRp115
(dp116
g18
I1
sg19
I0
sg20
I103
sg21
I0
sg22
I0
sg23
I0
sg24
I0
sbssg25
S'\x19\r\xeaZo\x919C\xa4\xc7\xebd\xaf"\x05\x7f'
p117
ssS'residents_admin'
p118
(dp119
g6
(dp120
g8
S'residents_admin.html'
p121
sg10
S'residents/admin'
p122
sg12
g13
(g14
g15
NtRp123
(dp124
g18
I1
sg19
I0
sg20
I10
sg21
I0
sg22
I0
sg23
I0
sg24
I0
sbssg25
S'*\x81`\x96\x1e\xb8=r2\xe0\xac\xd4\n\x82d\x0f'
p125
ssS'residents_urls'
p126
(dp127
g6
(dp128
g8
S'residents_urls.html'
p129
sg10
S'residents/urls'
p130
sg12
g13
(g14
g15
NtRp131
(dp132
g18
I1
sg19
I0
sg20
I7
sg21
I0
sg22
I0
sg23
I0
sg24
I0
sbssg25
S'\xecT=O\x1e\xa9\x02\x1fC\x88q\xa9c\xb2\xc9\xda'
p133
ssS'georgias_migrations_0001_initial'
p134
(dp135
g6
(dp136
g8
S'georgias_migrations_0001_initial.html'
p137
sg10
S'georgias/migrations/0001_initial'
p138
sg12
g13
(g14
g15
NtRp139
(dp140
g18
I1
sg19
I0
sg20
I9
sg21
I0
sg22
I0
sg23
I0
sg24
I0
sbssg25
S'Bl3\x15{o\xf0\x95X\xb4Nnn\x9d\xa7e'
p141
ssS'residents_apps'
p142
(dp143
g6
(dp144
g38
S'residents_apps.html'
p145
sg40
S'residents/apps'
p146
sg42
g13
(g14
g15
NtRp147
(dp148
g18
I1
sg19
I0
sg20
I0
sg21
I4
sg22
I0
sg23
I0
sg24
I0
sbssg25
S'\xc6T\xf3\x01\xc8\xae\x81[\xf5y1s\xcd\xbe\xc5.'
p149
ssS'residents_migrations___init__'
p150
(dp151
g6
(dp152
g8
S'residents_migrations___init__.html'
p153
sg10
S'residents/migrations/__init__'
p154
sg12
g13
(g14
g15
NtRp155
(dp156
g18
I1
sg19
I0
sg20
I0
sg21
I0
sg22
I0
sg23
I0
sg24
I0
sbssg25
S'\xca\xf5\x9f\x7f\x88\xdfa\x831|T\x1d\xbc}\xa5v'
p157
ssS'georgias_settings'
p158
(dp159
g6
(dp160
g8
S'georgias_settings.html'
p161
sg10
S'georgias/settings'
p162
sg12
g13
(g14
g15
NtRp163
(dp164
g18
I1
sg19
I0
sg20
I29
sg21
I0
sg22
I0
sg23
I0
sg24
I0
sbssg25
S'\xd1\xb5\x1bVI\x15\xc6wL\xcc;\x99\xff\xd0[\xc9'
p165
ssS'georgias_migrations___init__'
p166
(dp167
g6
(dp168
g8
S'georgias_migrations___init__.html'
p169
sg10
S'georgias/migrations/__init__'
p170
sg12
g13
(g14
g15
NtRp171
(dp172
g18
I1
sg19
I0
sg20
I0
sg21
I0
sg22
I0
sg23
I0
sg24
I0
sbssg25
S'\xca\xf5\x9f\x7f\x88\xdfa\x831|T\x1d\xbc}\xa5v'
p173
ssS'georgias_forms'
p174
(dp175
g6
(dp176
g8
S'georgias_forms.html'
p177
sg10
S'georgias/forms'
p178
sg12
g13
(g14
g15
NtRp179
(dp180
g18
I1
sg19
I0
sg20
I52
sg21
I0
sg22
I0
sg23
I0
sg24
I0
sbssg25
S'\x11i\xe1\x18){\x00K1\x9cN\xe9\xb5\xfaY7'
p181
ssS'georgias_wsgi'
p182
(dp183
g6
(dp184
g38
S'georgias_wsgi.html'
p185
sg40
S'georgias/wsgi'
p186
sg42
g13
(g14
g15
NtRp187
(dp188
g18
I1
sg19
I0
sg20
I0
sg21
I4
sg22
I0
sg23
I0
sg24
I0
sbssg25
S'o\x87k\xbb\x9cF\x1f\xf7\x9ab\xc1s\x18\xbf\x82`'
p189
ssS'georgias_urls'
p190
(dp191
g6
(dp192
g8
S'georgias_urls.html'
p193
sg10
S'georgias/urls'
p194
sg12
g13
(g14
g15
NtRp195
(dp196
g18
I1
sg19
I0
sg20
I4
sg21
I0
sg22
I0
sg23
I0
sg24
I0
sbssg25
S'n\r5\x86.R\x11\xfc\xe4\xe1\xbc\xe0\xeb\xcd\xb2T'
p197
sssS'version'
p198
S'3.7.1'
p199
sS'settings'
p200
S'<\x7f\xa3\xca\x18+\r\r\xaeDTgp\xe0\xba\xd9'
p201
sS'format'
p202
I1
s.